target datalayout = "e-m:e-p270:32:32-p271:32:32-p272:64:64-i64:64-i128:128-f80:128-n8:16:32:64-S128"
target triple = "x86_64-pc-linux-gnu"

%"class.cv::Mat" = type { i32, i32, i32, i32, ptr, ptr, ptr, ptr, ptr, ptr, %"struct.cv::MatSize", %"struct.cv::MatStep" }
%"struct.cv::MatSize" = type { ptr }
%"struct.cv::MatStep" = type { ptr, [2 x i64] }
%"class.cv::rgbd::Odometry" = type { %"class.cv::Algorithm" }
%"class.cv::Algorithm" = type { ptr }
%"class.cv::rgbd::FastICPOdometry" = type { %"class.cv::rgbd::Odometry", float, float, float, float, i32, %"class.cv::Mat", %"class.cv::Mat" }

; Function Attrs: inlinehint mustprogress nounwind uwtable
define linkonce_odr hidden noundef float @_ZN2cv4rgbd8Odometry22DEFAULT_MAX_DEPTH_DIFFEv() #11 comdat align 2 {
  ret float 0x3FB1EB8520000000
}

; Function Attrs: inlinehint mustprogress uwtable
define linkonce_odr hidden void @_ZN2cv4rgbd8OdometryC2Ev(ptr noundef nonnull align 8 dereferenceable(8) %0) unnamed_addr #4 comdat align 2 {
  %2 = alloca ptr, align 8
  store ptr %0, ptr %2, align 8, !tbaa !37
  %3 = load ptr, ptr %2, align 8
  call void @_ZN2cv9AlgorithmC2Ev(ptr noundef nonnull align 8 dereferenceable(8) %3)
  store ptr getelementptr inbounds inrange(-16, 120) ({ [17 x ptr] }, ptr @_ZTVN2cv4rgbd8OdometryE, i32 0, i32 0, i32 2), ptr %3, align 8, !tbaa !18
  ret void
}

; Function Attrs: mustprogress uwtable
define void @_ZN2cv4rgbd15FastICPOdometryC2Ev(ptr noundef nonnull align 8 dereferenceable(224) %0) unnamed_addr #6 align 2 personality ptr @__gxx_personality_v0 {
  %2 = alloca ptr, align 8
  %3 = alloca ptr, align 8
  %4 = alloca i32, align 4
  store ptr %0, ptr %2, align 8, !tbaa !180
  %5 = load ptr, ptr %2, align 8
  call void @_ZN2cv4rgbd8OdometryC2Ev(ptr noundef nonnull align 8 dereferenceable(8) %5)
  store ptr getelementptr inbounds inrange(-16, 120) ({ [17 x ptr] }, ptr @_ZTVN2cv4rgbd15FastICPOdometryE, i32 0, i32 0, i32 2), ptr %5, align 8, !tbaa !18
  %6 = getelementptr inbounds nuw %"class.cv::rgbd::FastICPOdometry", ptr %5, i32 0, i32 1
  %7 = invoke noundef float @_ZN2cv4rgbd8Odometry22DEFAULT_MAX_DEPTH_DIFFEv()
          to label %8 unwind label %17

8:                                                ; preds = %1
  store float %7, ptr %6, align 8, !tbaa !182
  %9 = getelementptr inbounds nuw %"class.cv::rgbd::FastICPOdometry", ptr %5, i32 0, i32 2
  store float 0x3FE0C15240000000, ptr %9, align 4, !tbaa !184
  %10 = getelementptr inbounds nuw %"class.cv::rgbd::FastICPOdometry", ptr %5, i32 0, i32 3
  store float 0x3FA47AE140000000, ptr %10, align 8, !tbaa !185
  %11 = getelementptr inbounds nuw %"class.cv::rgbd::FastICPOdometry", ptr %5, i32 0, i32 4
  store float 4.500000e+00, ptr %11, align 4, !tbaa !186
  %12 = getelementptr inbounds nuw %"class.cv::rgbd::FastICPOdometry", ptr %5, i32 0, i32 5
  store i32 7, ptr %12, align 8, !tbaa !187
  %13 = getelementptr inbounds nuw %"class.cv::rgbd::FastICPOdometry", ptr %5, i32 0, i32 6
  call void @_ZN2cv3MatC1Ev(ptr noundef nonnull align 8 dereferenceable(96) %13) #3
  %14 = getelementptr inbounds nuw %"class.cv::rgbd::FastICPOdometry", ptr %5, i32 0, i32 7
  call void @_ZN2cv3MatC1Ev(ptr noundef nonnull align 8 dereferenceable(96) %14) #3
  %15 = getelementptr inbounds nuw %"class.cv::rgbd::FastICPOdometry", ptr %5, i32 0, i32 6
  invoke void @_ZN2cv4rgbdL20setDefaultIterCountsERNS_3MatE(ptr noundef nonnull align 8 dereferenceable(96) %15)
          to label %16 unwind label %21

16:                                               ; preds = %8
  ret void

17:                                               ; preds = %1
  %18 = landingpad { ptr, i32 }
          cleanup
  %19 = extractvalue { ptr, i32 } %18, 0
  store ptr %19, ptr %3, align 8
  %20 = extractvalue { ptr, i32 } %18, 1
  store i32 %20, ptr %4, align 4
  br label %25

21:                                               ; preds = %8
  %22 = landingpad { ptr, i32 }
          cleanup
  %23 = extractvalue { ptr, i32 } %22, 0
  store ptr %23, ptr %3, align 8
  %24 = extractvalue { ptr, i32 } %22, 1
  store i32 %24, ptr %4, align 4
  call void @_ZN2cv3MatD1Ev(ptr noundef nonnull align 8 dereferenceable(96) %14) #3
  call void @_ZN2cv3MatD1Ev(ptr noundef nonnull align 8 dereferenceable(96) %13) #3
  br label %25

25:                                               ; preds = %21, %17
  call void @_ZN2cv9AlgorithmD2Ev(ptr noundef nonnull align 8 dereferenceable(8) %5) #3
  br label %26

26:                                               ; preds = %25
  %27 = load ptr, ptr %3, align 8
  %28 = load i32, ptr %4, align 4
  %29 = insertvalue { ptr, i32 } poison, ptr %27, 0
  %30 = insertvalue { ptr, i32 } %29, i32 %28, 1
  resume { ptr, i32 } %30
}