; Function Attrs: mustprogress uwtable
define void @_ZN2cv4rgbd15FastICPOdometryC2Ev(ptr noundef nonnull align 8 dereferenceable(224) %0) unnamed_addr #4 align 2 personality ptr @__gxx_personality_v0 {
  tail call void @_ZN2cv9AlgorithmC2Ev(ptr noundef nonnull align 8 dereferenceable(8) %0)
  store ptr getelementptr inbounds nuw inrange(-16, 120) (i8, ptr @_ZTVN2cv4rgbd15FastICPOdometryE, i64 16), ptr %0, align 8, !tbaa !15
  %2 = getelementptr inbounds nuw i8, ptr %0, i64 8
  store float 0x3FB1EB8520000000, ptr %2, align 8, !tbaa !321
  %3 = getelementptr inbounds nuw i8, ptr %0, i64 12
  store float 0x3FE0C15240000000, ptr %3, align 4, !tbaa !323
  %4 = getelementptr inbounds nuw i8, ptr %0, i64 16
  store float 0x3FA47AE140000000, ptr %4, align 8, !tbaa !324
  %5 = getelementptr inbounds nuw i8, ptr %0, i64 20
  store float 4.500000e+00, ptr %5, align 4, !tbaa !325
  %6 = getelementptr inbounds nuw i8, ptr %0, i64 24
  store i32 7, ptr %6, align 8, !tbaa !326
  %7 = getelementptr inbounds nuw i8, ptr %0, i64 32
  tail call void @_ZN2cv3MatC1Ev(ptr noundef nonnull align 8 dereferenceable(96) %7) #31
  %8 = getelementptr inbounds nuw i8, ptr %0, i64 128
  tail call void @_ZN2cv3MatC1Ev(ptr noundef nonnull align 8 dereferenceable(96) %8) #31
  invoke fastcc void @_ZN2cv4rgbdL20setDefaultIterCountsERNS_3MatE(ptr noundef nonnull align 8 dereferenceable(96) %7)
          to label %9 unwind label %10

9:                                                ; preds = %1
  ret void

10:                                               ; preds = %1
  %11 = landingpad { ptr, i32 }
          cleanup
  tail call void @_ZN2cv3MatD1Ev(ptr noundef nonnull align 8 dereferenceable(96) %8) #31
  tail call void @_ZN2cv3MatD1Ev(ptr noundef nonnull align 8 dereferenceable(96) %7) #31
  tail call void @_ZN2cv9AlgorithmD2Ev(ptr noundef nonnull align 8 dereferenceable(8) %0) #31
  resume { ptr, i32 } %11
}